target datalayout = "e-m:e-p270:32:32-p271:32:32-p272:64:64-i64:64-i128:128-f80:128-n8:16:32:64-S128"
target triple = "x86_64-pc-linux-gnu"

%struct.RangeTableFunc = type { i32, i8, ptr, ptr, ptr, ptr, ptr, i32 }

; Function Attrs: nounwind uwtable
define internal zeroext i1 @_equalRangeTableFunc(ptr noundef %0, ptr noundef %1) #0 {
  %3 = alloca i1, align 1
  %4 = alloca ptr, align 8
  %5 = alloca ptr, align 8
  store ptr %0, ptr %4, align 8
  store ptr %1, ptr %5, align 8
  br label %6

6:                                                ; preds = %2
  %7 = load ptr, ptr %4, align 8
  %8 = getelementptr inbounds nuw %struct.RangeTableFunc, ptr %7, i32 0, i32 1
  %9 = load i8, ptr %8, align 4, !range !4, !noundef !5
  %10 = trunc i8 %9 to i1
  %11 = zext i1 %10 to i32
  %12 = load ptr, ptr %5, align 8
  %13 = getelementptr inbounds nuw %struct.RangeTableFunc, ptr %12, i32 0, i32 1
  %14 = load i8, ptr %13, align 4, !range !4, !noundef !5
  %15 = trunc i8 %14 to i1
  %16 = zext i1 %15 to i32
  %17 = icmp ne i32 %11, %16
  br i1 %17, label %18, label %19

18:                                               ; preds = %6
  store i1 false, ptr %3, align 1
  br label %76

19:                                               ; preds = %6
  br label %20

20:                                               ; preds = %19
  br label %21

21:                                               ; preds = %20
  %22 = load ptr, ptr %4, align 8
  %23 = getelementptr inbounds nuw %struct.RangeTableFunc, ptr %22, i32 0, i32 2
  %24 = load ptr, ptr %23, align 8
  %25 = load ptr, ptr %5, align 8
  %26 = getelementptr inbounds nuw %struct.RangeTableFunc, ptr %25, i32 0, i32 2
  %27 = load ptr, ptr %26, align 8
  %28 = call zeroext i1 @equal(ptr noundef %24, ptr noundef %27)
  br i1 %28, label %30, label %29

29:                                               ; preds = %21
  store i1 false, ptr %3, align 1
  br label %76

30:                                               ; preds = %21
  br label %31

31:                                               ; preds = %30
  br label %32

32:                                               ; preds = %31
  %33 = load ptr, ptr %4, align 8
  %34 = getelementptr inbounds nuw %struct.RangeTableFunc, ptr %33, i32 0, i32 3
  %35 = load ptr, ptr %34, align 8
  %36 = load ptr, ptr %5, align 8
  %37 = getelementptr inbounds nuw %struct.RangeTableFunc, ptr %36, i32 0, i32 3
  %38 = load ptr, ptr %37, align 8
  %39 = call zeroext i1 @equal(ptr noundef %35, ptr noundef %38)
  br i1 %39, label %41, label %40

40:                                               ; preds = %32
  store i1 false, ptr %3, align 1
  br label %76

41:                                               ; preds = %32
  br label %42

42:                                               ; preds = %41
  br label %43

43:                                               ; preds = %42
  %44 = load ptr, ptr %4, align 8
  %45 = getelementptr inbounds nuw %struct.RangeTableFunc, ptr %44, i32 0, i32 4
  %46 = load ptr, ptr %45, align 8
  %47 = load ptr, ptr %5, align 8
  %48 = getelementptr inbounds nuw %struct.RangeTableFunc, ptr %47, i32 0, i32 4
  %49 = load ptr, ptr %48, align 8
  %50 = call zeroext i1 @equal(ptr noundef %46, ptr noundef %49)
  br i1 %50, label %52, label %51

51:                                               ; preds = %43
  store i1 false, ptr %3, align 1
  br label %76

52:                                               ; preds = %43
  br label %53

53:                                               ; preds = %52
  br label %54

54:                                               ; preds = %53
  %55 = load ptr, ptr %4, align 8
  %56 = getelementptr inbounds nuw %struct.RangeTableFunc, ptr %55, i32 0, i32 5
  %57 = load ptr, ptr %56, align 8
  %58 = load ptr, ptr %5, align 8
  %59 = getelementptr inbounds nuw %struct.RangeTableFunc, ptr %58, i32 0, i32 5
  %60 = load ptr, ptr %59, align 8
  %61 = call zeroext i1 @equal(ptr noundef %57, ptr noundef %60)
  br i1 %61, label %63, label %62

62:                                               ; preds = %54
  store i1 false, ptr %3, align 1
  br label %76

63:                                               ; preds = %54
  br label %64

64:                                               ; preds = %63
  br label %65

65:                                               ; preds = %64
  %66 = load ptr, ptr %4, align 8
  %67 = getelementptr inbounds nuw %struct.RangeTableFunc, ptr %66, i32 0, i32 6
  %68 = load ptr, ptr %67, align 8
  %69 = load ptr, ptr %5, align 8
  %70 = getelementptr inbounds nuw %struct.RangeTableFunc, ptr %69, i32 0, i32 6
  %71 = load ptr, ptr %70, align 8
  %72 = call zeroext i1 @equal(ptr noundef %68, ptr noundef %71)
  br i1 %72, label %74, label %73

73:                                               ; preds = %65
  store i1 false, ptr %3, align 1
  br label %76

74:                                               ; preds = %65
  br label %75

75:                                               ; preds = %74
  store i1 true, ptr %3, align 1
  br label %76

76:                                               ; preds = %75, %73, %62, %51, %40, %29, %18
  %77 = load i1, ptr %3, align 1
  ret i1 %77
}